; Function Attrs: nounwind uwtable
define hidden ptr @Wayland_GLES_CreateContext(ptr noundef %0, ptr noundef readonly captures(none) %1) local_unnamed_addr #0 {
  %3 = getelementptr inbounds nuw i8, ptr %1, i64 392
  %4 = load ptr, ptr %3, align 8
  %5 = getelementptr inbounds nuw i8, ptr %4, i64 112
  %6 = load ptr, ptr %5, align 8
  %7 = tail call ptr @SDL_EGL_CreateContext(ptr noundef %0, ptr noundef %6) #4
  %8 = load ptr, ptr @WAYLAND_wl_display_flush, align 8
  %9 = getelementptr inbounds nuw i8, ptr %0, i64 1656
  %10 = load ptr, ptr %9, align 8
  %11 = getelementptr inbounds nuw i8, ptr %10, i64 8
  %12 = load ptr, ptr %11, align 8
  %13 = tail call i32 %8(ptr noundef %12) #4
  ret ptr %7
}